target datalayout = "e-m:e-p270:32:32-p271:32:32-p272:64:64-i64:64-i128:128-f80:128-n8:16:32:64-S128"
target triple = "x86_64-pc-linux-gnu"

%class.dtObstacleAvoidanceDebugData = type { i32, i32, ptr, ptr, ptr, ptr, ptr, ptr, ptr }

; Function Attrs: mustprogress nounwind uwtable
define void @_ZN28dtObstacleAvoidanceDebugDataD2Ev(ptr noundef nonnull align 8 dereferenceable(64) %0) unnamed_addr #2 align 2 personality ptr @__gxx_personality_v0 {
  %2 = alloca ptr, align 8
  store ptr %0, ptr %2, align 8
  %3 = load ptr, ptr %2, align 8
  %4 = getelementptr inbounds %class.dtObstacleAvoidanceDebugData, ptr %3, i32 0, i32 2
  %5 = load ptr, ptr %4, align 8
  invoke void @_Z6dtFreePv(ptr noundef %5)
          to label %6 unwind label %25

6:                                                ; preds = %1
  %7 = getelementptr inbounds %class.dtObstacleAvoidanceDebugData, ptr %3, i32 0, i32 3
  %8 = load ptr, ptr %7, align 8
  invoke void @_Z6dtFreePv(ptr noundef %8)
          to label %9 unwind label %25

9:                                                ; preds = %6
  %10 = getelementptr inbounds %class.dtObstacleAvoidanceDebugData, ptr %3, i32 0, i32 4
  %11 = load ptr, ptr %10, align 8
  invoke void @_Z6dtFreePv(ptr noundef %11)
          to label %12 unwind label %25

12:                                               ; preds = %9
  %13 = getelementptr inbounds %class.dtObstacleAvoidanceDebugData, ptr %3, i32 0, i32 5
  %14 = load ptr, ptr %13, align 8
  invoke void @_Z6dtFreePv(ptr noundef %14)
          to label %15 unwind label %25

15:                                               ; preds = %12
  %16 = getelementptr inbounds %class.dtObstacleAvoidanceDebugData, ptr %3, i32 0, i32 6
  %17 = load ptr, ptr %16, align 8
  invoke void @_Z6dtFreePv(ptr noundef %17)
          to label %18 unwind label %25

18:                                               ; preds = %15
  %19 = getelementptr inbounds %class.dtObstacleAvoidanceDebugData, ptr %3, i32 0, i32 7
  %20 = load ptr, ptr %19, align 8
  invoke void @_Z6dtFreePv(ptr noundef %20)
          to label %21 unwind label %25

21:                                               ; preds = %18
  %22 = getelementptr inbounds %class.dtObstacleAvoidanceDebugData, ptr %3, i32 0, i32 8
  %23 = load ptr, ptr %22, align 8
  invoke void @_Z6dtFreePv(ptr noundef %23)
          to label %24 unwind label %25

24:                                               ; preds = %21
  ret void

25:                                               ; preds = %21, %18, %15, %12, %9, %6, %1
  %26 = landingpad { ptr, i32 }
          catch ptr null
  %27 = extractvalue { ptr, i32 } %26, 0
  call void @__clang_call_terminate(ptr %27) #9
  unreachable
}