; Function Attrs: mustprogress nounwind uwtable
define void @_ZN28dtObstacleAvoidanceDebugDataD2Ev(ptr noundef nonnull readonly align 8 captures(none) dereferenceable(64) %0) unnamed_addr #3 align 2 personality ptr @__gxx_personality_v0 {
  %2 = getelementptr inbounds nuw i8, ptr %0, i64 8
  %3 = load ptr, ptr %2, align 8
  invoke void @_Z6dtFreePv(ptr noundef %3)
          to label %4 unwind label %23

4:                                                ; preds = %1
  %5 = getelementptr inbounds nuw i8, ptr %0, i64 16
  %6 = load ptr, ptr %5, align 8
  invoke void @_Z6dtFreePv(ptr noundef %6)
          to label %7 unwind label %23

7:                                                ; preds = %4
  %8 = getelementptr inbounds nuw i8, ptr %0, i64 24
  %9 = load ptr, ptr %8, align 8
  invoke void @_Z6dtFreePv(ptr noundef %9)
          to label %10 unwind label %23

10:                                               ; preds = %7
  %11 = getelementptr inbounds nuw i8, ptr %0, i64 32
  %12 = load ptr, ptr %11, align 8
  invoke void @_Z6dtFreePv(ptr noundef %12)
          to label %13 unwind label %23

13:                                               ; preds = %10
  %14 = getelementptr inbounds nuw i8, ptr %0, i64 40
  %15 = load ptr, ptr %14, align 8
  invoke void @_Z6dtFreePv(ptr noundef %15)
          to label %16 unwind label %23

16:                                               ; preds = %13
  %17 = getelementptr inbounds nuw i8, ptr %0, i64 48
  %18 = load ptr, ptr %17, align 8
  invoke void @_Z6dtFreePv(ptr noundef %18)
          to label %19 unwind label %23

19:                                               ; preds = %16
  %20 = getelementptr inbounds nuw i8, ptr %0, i64 56
  %21 = load ptr, ptr %20, align 8
  invoke void @_Z6dtFreePv(ptr noundef %21)
          to label %22 unwind label %23

22:                                               ; preds = %19
  ret void

23:                                               ; preds = %19, %16, %13, %10, %7, %4, %1
  %24 = landingpad { ptr, i32 }
          catch ptr null
  %25 = extractvalue { ptr, i32 } %24, 0
  tail call void @__clang_call_terminate(ptr %25) #14
  unreachable
}